; Function Attrs: mustprogress nounwind uwtable
define dso_local void @_ZNK5clang6driver9ToolChain14GetProgramPathB5cxx11EPKc(ptr dead_on_unwind noalias writable sret(%"class.std::__cxx11::basic_string") align 8 %0, ptr noundef nonnull align 8 dereferenceable(2168) %1, ptr noundef %2) local_unnamed_addr #0 align 2 {
  %4 = getelementptr inbounds nuw i8, ptr %1, i64 8
  %5 = load ptr, ptr %4, align 8
  %.not.i = icmp eq ptr %2, null
  br i1 %.not.i, label %_ZN4llvm9StringRefC2EPKc.exit, label %6

6:                                                ; preds = %3
  %7 = tail call noundef i64 @strlen(ptr noundef nonnull dereferenceable(1) %2) #25
  br label %_ZN4llvm9StringRefC2EPKc.exit

_ZN4llvm9StringRefC2EPKc.exit:                    ; preds = %3, %6
  %8 = phi i64 [ %7, %6 ], [ 0, %3 ]
  tail call void @_ZNK5clang6driver6Driver14GetProgramPathB5cxx11EN4llvm9StringRefERKNS0_9ToolChainE(ptr dead_on_unwind writable sret(%"class.std::__cxx11::basic_string") align 8 %0, ptr noundef nonnull align 8 dereferenceable(1192) %5, ptr %2, i64 %8, ptr noundef nonnull align 8 dereferenceable(2168) %1) #25
  ret void
}